; Function Attrs: mustprogress nofree norecurse nosync nounwind willreturn memory(readwrite, inaccessiblemem: none) uwtable
define range(i32 -2, 1) i32 @deflateTune(ptr noundef readonly captures(address) %0, i32 noundef %1, i32 noundef %2, i32 noundef %3, i32 noundef %4) local_unnamed_addr #3 {
  %6 = icmp eq ptr %0, null
  br i1 %6, label %deflateStateCheck.exit.thread, label %7

7:                                                ; preds = %5
  %8 = getelementptr inbounds nuw i8, ptr %0, i64 64
  %9 = load ptr, ptr %8, align 8, !tbaa !13
  %10 = icmp eq ptr %9, null
  br i1 %10, label %deflateStateCheck.exit.thread, label %11

11:                                               ; preds = %7
  %12 = getelementptr inbounds nuw i8, ptr %0, i64 72
  %13 = load ptr, ptr %12, align 8, !tbaa !15
  %14 = icmp eq ptr %13, null
  br i1 %14, label %deflateStateCheck.exit.thread, label %15

15:                                               ; preds = %11
  %16 = getelementptr inbounds nuw i8, ptr %0, i64 56
  %17 = load ptr, ptr %16, align 8, !tbaa !16
  %18 = icmp eq ptr %17, null
  br i1 %18, label %deflateStateCheck.exit.thread, label %19

19:                                               ; preds = %15
  %20 = load ptr, ptr %17, align 8, !tbaa !17
  %.not.i = icmp eq ptr %20, %0
  br i1 %.not.i, label %21, label %deflateStateCheck.exit.thread

21:                                               ; preds = %19
  %22 = getelementptr inbounds nuw i8, ptr %17, i64 8
  %23 = load i32, ptr %22, align 8, !tbaa !26
  switch i32 %23, label %deflateStateCheck.exit.thread [
    i32 42, label %deflateStateCheck.exit
    i32 57, label %deflateStateCheck.exit
    i32 69, label %deflateStateCheck.exit
    i32 73, label %deflateStateCheck.exit
    i32 91, label %deflateStateCheck.exit
    i32 103, label %deflateStateCheck.exit
    i32 113, label %deflateStateCheck.exit
    i32 666, label %deflateStateCheck.exit
  ]

deflateStateCheck.exit:                           ; preds = %21, %21, %21, %21, %21, %21, %21, %21
  %24 = getelementptr inbounds nuw i8, ptr %17, i64 204
  store i32 %1, ptr %24, align 4, !tbaa !55
  %25 = getelementptr inbounds nuw i8, ptr %17, i64 192
  store i32 %2, ptr %25, align 8, !tbaa !53
  %26 = getelementptr inbounds nuw i8, ptr %17, i64 208
  store i32 %3, ptr %26, align 8, !tbaa !57
  %27 = getelementptr inbounds nuw i8, ptr %17, i64 188
  store i32 %4, ptr %27, align 4, !tbaa !59
  br label %deflateStateCheck.exit.thread

deflateStateCheck.exit.thread:                    ; preds = %15, %19, %21, %5, %7, %11, %deflateStateCheck.exit
  %.0 = phi i32 [ 0, %deflateStateCheck.exit ], [ -2, %11 ], [ -2, %7 ], [ -2, %5 ], [ -2, %21 ], [ -2, %19 ], [ -2, %15 ]
  ret i32 %.0
}